; Function Attrs: mustprogress nofree norecurse nosync nounwind willreturn memory(read, inaccessiblemem: none) uwtable
define hidden noundef ptr @_ZN3sls6solver13bool_var2exprEj(ptr noundef nonnull readonly align 8 captures(none) dereferenceable(160) %0, i32 noundef %1) unnamed_addr #14 align 2 {
  %3 = getelementptr inbounds nuw i8, ptr %0, i64 80
  %4 = load ptr, ptr %3, align 8, !tbaa !411
  %5 = getelementptr inbounds nuw i8, ptr %4, i64 2368
  %6 = load ptr, ptr %5, align 8, !tbaa !412
  %7 = icmp eq ptr %6, null
  br i1 %7, label %_ZNK3euf6solver13bool_var2exprEj.exit, label %_ZNK6vectorIP4exprLb0EjE3getEjRKS1_.exit.i

_ZNK6vectorIP4exprLb0EjE3getEjRKS1_.exit.i:       ; preds = %2
  %8 = getelementptr inbounds i8, ptr %6, i64 -4
  %9 = load i32, ptr %8, align 4, !tbaa !413
  %.not.i.i = icmp ult i32 %1, %9
  br i1 %.not.i.i, label %_ZNK6vectorIP4exprLb0EjE3getEjRKS1_.exit.then.i, label %_ZNK3euf6solver13bool_var2exprEj.exit

_ZNK6vectorIP4exprLb0EjE3getEjRKS1_.exit.then.i:  ; preds = %_ZNK6vectorIP4exprLb0EjE3getEjRKS1_.exit.i
  %10 = zext i32 %1 to i64
  %11 = getelementptr inbounds nuw ptr, ptr %6, i64 %10
  %.then.val.i = load ptr, ptr %11, align 8, !tbaa !414
  br label %_ZNK3euf6solver13bool_var2exprEj.exit

_ZNK3euf6solver13bool_var2exprEj.exit:            ; preds = %2, %_ZNK6vectorIP4exprLb0EjE3getEjRKS1_.exit.i, %_ZNK6vectorIP4exprLb0EjE3getEjRKS1_.exit.then.i
  %12 = phi ptr [ %.then.val.i, %_ZNK6vectorIP4exprLb0EjE3getEjRKS1_.exit.then.i ], [ null, %_ZNK6vectorIP4exprLb0EjE3getEjRKS1_.exit.i ], [ null, %2 ]
  ret ptr %12
}